target datalayout = "e-m:e-p270:32:32-p271:32:32-p272:64:64-i64:64-i128:128-f80:128-n8:16:32:64-S128"
target triple = "x86_64-pc-linux-gnu"

%struct.Mfs_Man_t_ = type { ptr, ptr, ptr, ptr, i32, ptr, ptr, ptr, ptr, ptr, ptr, ptr, ptr, i32, i32, i32, i32, ptr, ptr, i32, i32, i32, ptr, ptr, ptr, ptr, ptr, ptr, ptr, i32, i32, ptr, i32, i32, i32, [128 x i32], i32, i32, i32, i32, i32, i32, i32, i32, i32, i32, i32, i32, i32, i32, double, i32, i32, i32, i32, float, float, i64, i64, i64, i64, i64, i64, i64, i64 }
%struct.Mfs_Par_t_ = type { i32, i32, i32, i32, i32, i32, i32, i32, i32, i32, i32, i32, i32, i32, i32, i32, i32 }
%struct.Vec_Int_t_ = type { i32, i32, ptr }
%struct.Vec_Vec_t_ = type { i32, i32, ptr }
%struct.Vec_Ptr_t_ = type { i32, i32, ptr }

; Function Attrs: nounwind uwtable
define internal ptr @Vec_VecEntry(ptr noundef %0, i32 noundef %1) #0 {
  %3 = alloca ptr, align 8
  %4 = alloca i32, align 4
  store ptr %0, ptr %3, align 8
  store i32 %1, ptr %4, align 4
  %5 = load ptr, ptr %3, align 8
  %6 = getelementptr inbounds %struct.Vec_Vec_t_, ptr %5, i32 0, i32 2
  %7 = load ptr, ptr %6, align 8
  %8 = load i32, ptr %4, align 4
  %9 = sext i32 %8 to i64
  %10 = getelementptr inbounds ptr, ptr %7, i64 %9
  %11 = load ptr, ptr %10, align 8
  ret ptr %11
}

; Function Attrs: nounwind uwtable
define internal i32 @Vec_VecSize(ptr noundef %0) #0 {
  %2 = alloca ptr, align 8
  store ptr %0, ptr %2, align 8
  %3 = load ptr, ptr %2, align 8
  %4 = getelementptr inbounds %struct.Vec_Vec_t_, ptr %3, i32 0, i32 1
  %5 = load i32, ptr %4, align 4
  ret i32 %5
}

; Function Attrs: nounwind uwtable
define internal void @Vec_PtrFree(ptr noundef %0) #0 {
  %2 = alloca ptr, align 8
  store ptr %0, ptr %2, align 8
  %3 = load ptr, ptr %2, align 8
  %4 = getelementptr inbounds %struct.Vec_Ptr_t_, ptr %3, i32 0, i32 2
  %5 = load ptr, ptr %4, align 8
  %6 = icmp ne ptr %5, null
  br i1 %6, label %7, label %13

7:                                                ; preds = %1
  %8 = load ptr, ptr %2, align 8
  %9 = getelementptr inbounds %struct.Vec_Ptr_t_, ptr %8, i32 0, i32 2
  %10 = load ptr, ptr %9, align 8
  call void @free(ptr noundef %10) #8
  %11 = load ptr, ptr %2, align 8
  %12 = getelementptr inbounds %struct.Vec_Ptr_t_, ptr %11, i32 0, i32 2
  store ptr null, ptr %12, align 8
  br label %14

13:                                               ; preds = %1
  br label %14

14:                                               ; preds = %13, %7
  %15 = load ptr, ptr %2, align 8
  %16 = icmp ne ptr %15, null
  br i1 %16, label %17, label %19

17:                                               ; preds = %14
  %18 = load ptr, ptr %2, align 8
  call void @free(ptr noundef %18) #8
  store ptr null, ptr %2, align 8
  br label %20

19:                                               ; preds = %14
  br label %20

20:                                               ; preds = %19, %17
  ret void
}

; Function Attrs: nounwind uwtable
define internal void @Vec_VecFree(ptr noundef %0) #0 {
  %2 = alloca ptr, align 8
  %3 = alloca ptr, align 8
  %4 = alloca i32, align 4
  store ptr %0, ptr %2, align 8
  store i32 0, ptr %4, align 4
  br label %5

5:                                                ; preds = %22, %1
  %6 = load i32, ptr %4, align 4
  %7 = load ptr, ptr %2, align 8
  %8 = call i32 @Vec_VecSize(ptr noundef %7)
  %9 = icmp slt i32 %6, %8
  br i1 %9, label %10, label %14

10:                                               ; preds = %5
  %11 = load ptr, ptr %2, align 8
  %12 = load i32, ptr %4, align 4
  %13 = call ptr @Vec_VecEntry(ptr noundef %11, i32 noundef %12)
  store ptr %13, ptr %3, align 8
  br label %14

14:                                               ; preds = %10, %5
  %15 = phi i1 [ false, %5 ], [ true, %10 ]
  br i1 %15, label %16, label %25

16:                                               ; preds = %14
  %17 = load ptr, ptr %3, align 8
  %18 = icmp ne ptr %17, null
  br i1 %18, label %19, label %21

19:                                               ; preds = %16
  %20 = load ptr, ptr %3, align 8
  call void @Vec_PtrFree(ptr noundef %20)
  br label %21

21:                                               ; preds = %19, %16
  br label %22

22:                                               ; preds = %21
  %23 = load i32, ptr %4, align 4
  %24 = add nsw i32 %23, 1
  store i32 %24, ptr %4, align 4
  br label %5, !llvm.loop !7

25:                                               ; preds = %14
  %26 = load ptr, ptr %2, align 8
  call void @Vec_PtrFree(ptr noundef %26)
  ret void
}

; Function Attrs: nounwind uwtable
define internal void @Vec_IntFree(ptr noundef %0) #0 {
  %2 = alloca ptr, align 8
  store ptr %0, ptr %2, align 8
  %3 = load ptr, ptr %2, align 8
  %4 = getelementptr inbounds %struct.Vec_Int_t_, ptr %3, i32 0, i32 2
  %5 = load ptr, ptr %4, align 8
  %6 = icmp ne ptr %5, null
  br i1 %6, label %7, label %13

7:                                                ; preds = %1
  %8 = load ptr, ptr %2, align 8
  %9 = getelementptr inbounds %struct.Vec_Int_t_, ptr %8, i32 0, i32 2
  %10 = load ptr, ptr %9, align 8
  call void @free(ptr noundef %10) #8
  %11 = load ptr, ptr %2, align 8
  %12 = getelementptr inbounds %struct.Vec_Int_t_, ptr %11, i32 0, i32 2
  store ptr null, ptr %12, align 8
  br label %14

13:                                               ; preds = %1
  br label %14

14:                                               ; preds = %13, %7
  %15 = load ptr, ptr %2, align 8
  %16 = icmp ne ptr %15, null
  br i1 %16, label %17, label %19

17:                                               ; preds = %14
  %18 = load ptr, ptr %2, align 8
  call void @free(ptr noundef %18) #8
  store ptr null, ptr %2, align 8
  br label %20

19:                                               ; preds = %14
  br label %20

20:                                               ; preds = %19, %17
  ret void
}

; Function Attrs: nounwind uwtable
define void @Mfs_ManStop(ptr noundef %0) #0 {
  %2 = alloca ptr, align 8
  store ptr %0, ptr %2, align 8
  %3 = load ptr, ptr %2, align 8
  %4 = getelementptr inbounds %struct.Mfs_Man_t_, ptr %3, i32 0, i32 0
  %5 = load ptr, ptr %4, align 8
  %6 = getelementptr inbounds %struct.Mfs_Par_t_, ptr %5, i32 0, i32 15
  %7 = load i32, ptr %6, align 4
  %8 = icmp ne i32 %7, 0
  br i1 %8, label %9, label %11

9:                                                ; preds = %1
  %10 = load ptr, ptr %2, align 8
  call void @Mfs_ManPrint(ptr noundef %10)
  br label %11

11:                                               ; preds = %9, %1
  %12 = load ptr, ptr %2, align 8
  %13 = getelementptr inbounds %struct.Mfs_Man_t_, ptr %12, i32 0, i32 17
  %14 = load ptr, ptr %13, align 8
  %15 = icmp ne ptr %14, null
  br i1 %15, label %16, label %20

16:                                               ; preds = %11
  %17 = load ptr, ptr %2, align 8
  %18 = getelementptr inbounds %struct.Mfs_Man_t_, ptr %17, i32 0, i32 17
  %19 = load ptr, ptr %18, align 8
  call void @Vec_IntFree(ptr noundef %19)
  br label %20

20:                                               ; preds = %16, %11
  %21 = load ptr, ptr %2, align 8
  %22 = getelementptr inbounds %struct.Mfs_Man_t_, ptr %21, i32 0, i32 18
  %23 = load ptr, ptr %22, align 8
  %24 = icmp ne ptr %23, null
  br i1 %24, label %25, label %29

25:                                               ; preds = %20
  %26 = load ptr, ptr %2, align 8
  %27 = getelementptr inbounds %struct.Mfs_Man_t_, ptr %26, i32 0, i32 18
  %28 = load ptr, ptr %27, align 8
  call void @Bdc_ManFree(ptr noundef %28)
  br label %29

29:                                               ; preds = %25, %20
  %30 = load ptr, ptr %2, align 8
  %31 = getelementptr inbounds %struct.Mfs_Man_t_, ptr %30, i32 0, i32 2
  %32 = load ptr, ptr %31, align 8
  %33 = icmp ne ptr %32, null
  br i1 %33, label %34, label %38

34:                                               ; preds = %29
  %35 = load ptr, ptr %2, align 8
  %36 = getelementptr inbounds %struct.Mfs_Man_t_, ptr %35, i32 0, i32 2
  %37 = load ptr, ptr %36, align 8
  call void @Aig_ManStop(ptr noundef %37)
  br label %38

38:                                               ; preds = %34, %29
  %39 = load ptr, ptr %2, align 8
  %40 = getelementptr inbounds %struct.Mfs_Man_t_, ptr %39, i32 0, i32 3
  %41 = load ptr, ptr %40, align 8
  %42 = icmp ne ptr %41, null
  br i1 %42, label %43, label %47

43:                                               ; preds = %38
  %44 = load ptr, ptr %2, align 8
  %45 = getelementptr inbounds %struct.Mfs_Man_t_, ptr %44, i32 0, i32 3
  %46 = load ptr, ptr %45, align 8
  call void @Vec_VecFree(ptr noundef %46)
  br label %47

47:                                               ; preds = %43, %38
  %48 = load ptr, ptr %2, align 8
  %49 = getelementptr inbounds %struct.Mfs_Man_t_, ptr %48, i32 0, i32 31
  %50 = load ptr, ptr %49, align 8
  %51 = icmp ne ptr %50, null
  br i1 %51, label %52, label %56

52:                                               ; preds = %47
  %53 = load ptr, ptr %2, align 8
  %54 = getelementptr inbounds %struct.Mfs_Man_t_, ptr %53, i32 0, i32 31
  %55 = load ptr, ptr %54, align 8
  call void @Vec_IntFree(ptr noundef %55)
  br label %56

56:                                               ; preds = %52, %47
  %57 = load ptr, ptr %2, align 8
  call void @Mfs_ManClean(ptr noundef %57)
  %58 = load ptr, ptr %2, align 8
  %59 = getelementptr inbounds %struct.Mfs_Man_t_, ptr %58, i32 0, i32 25
  %60 = load ptr, ptr %59, align 8
  call void @Int_ManFree(ptr noundef %60)
  %61 = load ptr, ptr %2, align 8
  %62 = getelementptr inbounds %struct.Mfs_Man_t_, ptr %61, i32 0, i32 26
  %63 = load ptr, ptr %62, align 8
  call void @Vec_IntFree(ptr noundef %63)
  %64 = load ptr, ptr %2, align 8
  %65 = getelementptr inbounds %struct.Mfs_Man_t_, ptr %64, i32 0, i32 27
  %66 = load ptr, ptr %65, align 8
  call void @Vec_VecFree(ptr noundef %66)
  %67 = load ptr, ptr %2, align 8
  %68 = getelementptr inbounds %struct.Mfs_Man_t_, ptr %67, i32 0, i32 28
  %69 = load ptr, ptr %68, align 8
  call void @Vec_PtrFree(ptr noundef %69)
  %70 = load ptr, ptr %2, align 8
  %71 = getelementptr inbounds %struct.Mfs_Man_t_, ptr %70, i32 0, i32 10
  %72 = load ptr, ptr %71, align 8
  call void @Vec_IntFree(ptr noundef %72)
  %73 = load ptr, ptr %2, align 8
  %74 = getelementptr inbounds %struct.Mfs_Man_t_, ptr %73, i32 0, i32 11
  %75 = load ptr, ptr %74, align 8
  call void @Vec_IntFree(ptr noundef %75)
  %76 = load ptr, ptr %2, align 8
  %77 = getelementptr inbounds %struct.Mfs_Man_t_, ptr %76, i32 0, i32 9
  %78 = load ptr, ptr %77, align 8
  call void @Vec_IntFree(ptr noundef %78)
  %79 = load ptr, ptr %2, align 8
  %80 = getelementptr inbounds %struct.Mfs_Man_t_, ptr %79, i32 0, i32 12
  %81 = load ptr, ptr %80, align 8
  call void @Vec_PtrFree(ptr noundef %81)
  %82 = load ptr, ptr %2, align 8
  %83 = icmp ne ptr %82, null
  br i1 %83, label %84, label %86

84:                                               ; preds = %56
  %85 = load ptr, ptr %2, align 8
  call void @free(ptr noundef %85) #8
  store ptr null, ptr %2, align 8
  br label %87

86:                                               ; preds = %56
  br label %87

87:                                               ; preds = %86, %84
  ret void
}