; Function Attrs: nounwind uwtable
define void @Mfs_ManStop(ptr noundef captures(none) %0) local_unnamed_addr #0 {
  %2 = load ptr, ptr %0, align 8
  %3 = getelementptr inbounds nuw i8, ptr %2, i64 60
  %4 = load i32, ptr %3, align 4
  %.not = icmp eq i32 %4, 0
  br i1 %.not, label %6, label %5

5:                                                ; preds = %1
  tail call void @Mfs_ManPrint(ptr noundef nonnull %0)
  br label %6

6:                                                ; preds = %5, %1
  %7 = getelementptr inbounds nuw i8, ptr %0, i64 120
  %8 = load ptr, ptr %7, align 8
  %.not27 = icmp eq ptr %8, null
  br i1 %.not27, label %13, label %9

9:                                                ; preds = %6
  %10 = getelementptr inbounds nuw i8, ptr %8, i64 8
  %11 = load ptr, ptr %10, align 8
  %.not.i = icmp eq ptr %11, null
  br i1 %.not.i, label %Vec_IntFree.exit, label %12

12:                                               ; preds = %9
  tail call void @free(ptr noundef nonnull %11) #12
  br label %Vec_IntFree.exit

Vec_IntFree.exit:                                 ; preds = %9, %12
  tail call void @free(ptr noundef nonnull %8) #12
  br label %13

13:                                               ; preds = %Vec_IntFree.exit, %6
  %14 = getelementptr inbounds nuw i8, ptr %0, i64 128
  %15 = load ptr, ptr %14, align 8
  %.not28 = icmp eq ptr %15, null
  br i1 %.not28, label %17, label %16

16:                                               ; preds = %13
  tail call void @Bdc_ManFree(ptr noundef nonnull %15) #12
  br label %17

17:                                               ; preds = %16, %13
  %18 = getelementptr inbounds nuw i8, ptr %0, i64 16
  %19 = load ptr, ptr %18, align 8
  %.not29 = icmp eq ptr %19, null
  br i1 %.not29, label %21, label %20

20:                                               ; preds = %17
  tail call void @Aig_ManStop(ptr noundef nonnull %19) #12
  br label %21

21:                                               ; preds = %20, %17
  %22 = getelementptr inbounds nuw i8, ptr %0, i64 24
  %23 = load ptr, ptr %22, align 8
  %.not30 = icmp eq ptr %23, null
  br i1 %.not30, label %41, label %24

24:                                               ; preds = %21
  %25 = getelementptr i8, ptr %23, i64 4
  %.val11.i = load i32, ptr %25, align 4
  %26 = icmp sgt i32 %.val11.i, 0
  br i1 %26, label %.lr.ph.i, label %.critedge.i

.lr.ph.i:                                         ; preds = %24
  %27 = getelementptr i8, ptr %23, i64 8
  br label %28

28:                                               ; preds = %35, %.lr.ph.i
  %.val14.i = phi i32 [ %.val11.i, %.lr.ph.i ], [ %.val.i, %35 ]
  %indvars.iv.i = phi i64 [ 0, %.lr.ph.i ], [ %indvars.iv.next.i, %35 ]
  %.val8.i = load ptr, ptr %27, align 8
  %29 = getelementptr inbounds nuw ptr, ptr %.val8.i, i64 %indvars.iv.i
  %30 = load ptr, ptr %29, align 8
  %.not.i32 = icmp eq ptr %30, null
  br i1 %.not.i32, label %35, label %31

31:                                               ; preds = %28
  %32 = getelementptr inbounds nuw i8, ptr %30, i64 8
  %33 = load ptr, ptr %32, align 8
  %.not.i.i = icmp eq ptr %33, null
  br i1 %.not.i.i, label %Vec_PtrFree.exit.i, label %34

34:                                               ; preds = %31
  tail call void @free(ptr noundef nonnull %33) #12
  br label %Vec_PtrFree.exit.i

Vec_PtrFree.exit.i:                               ; preds = %34, %31
  tail call void @free(ptr noundef nonnull %30) #12
  %.val.pre.i = load i32, ptr %25, align 4
  br label %35

35:                                               ; preds = %Vec_PtrFree.exit.i, %28
  %.val.i = phi i32 [ %.val14.i, %28 ], [ %.val.pre.i, %Vec_PtrFree.exit.i ]
  %indvars.iv.next.i = add nuw nsw i64 %indvars.iv.i, 1
  %36 = sext i32 %.val.i to i64
  %37 = icmp slt i64 %indvars.iv.next.i, %36
  br i1 %37, label %28, label %.critedge.i, !llvm.loop !7

.critedge.i:                                      ; preds = %35, %24
  %38 = getelementptr inbounds nuw i8, ptr %23, i64 8
  %39 = load ptr, ptr %38, align 8
  %.not.i9.i = icmp eq ptr %39, null
  br i1 %.not.i9.i, label %Vec_VecFree.exit, label %40

40:                                               ; preds = %.critedge.i
  tail call void @free(ptr noundef nonnull %39) #12
  br label %Vec_VecFree.exit

Vec_VecFree.exit:                                 ; preds = %.critedge.i, %40
  tail call void @free(ptr noundef nonnull %23) #12
  br label %41

41:                                               ; preds = %Vec_VecFree.exit, %21
  %42 = getelementptr inbounds nuw i8, ptr %0, i64 216
  %43 = load ptr, ptr %42, align 8
  %.not31 = icmp eq ptr %43, null
  br i1 %.not31, label %48, label %44

44:                                               ; preds = %41
  %45 = getelementptr inbounds nuw i8, ptr %43, i64 8
  %46 = load ptr, ptr %45, align 8
  %.not.i33 = icmp eq ptr %46, null
  br i1 %.not.i33, label %Vec_IntFree.exit34, label %47

47:                                               ; preds = %44
  tail call void @free(ptr noundef nonnull %46) #12
  br label %Vec_IntFree.exit34

Vec_IntFree.exit34:                               ; preds = %44, %47
  tail call void @free(ptr noundef nonnull %43) #12
  br label %48

48:                                               ; preds = %Vec_IntFree.exit34, %41
  tail call void @Mfs_ManClean(ptr noundef nonnull %0)
  %49 = getelementptr inbounds nuw i8, ptr %0, i64 176
  %50 = load ptr, ptr %49, align 8
  tail call void @Int_ManFree(ptr noundef %50) #12
  %51 = getelementptr inbounds nuw i8, ptr %0, i64 184
  %52 = load ptr, ptr %51, align 8
  %53 = getelementptr inbounds nuw i8, ptr %52, i64 8
  %54 = load ptr, ptr %53, align 8
  %.not.i35 = icmp eq ptr %54, null
  br i1 %.not.i35, label %Vec_IntFree.exit36, label %55

55:                                               ; preds = %48
  tail call void @free(ptr noundef nonnull %54) #12
  br label %Vec_IntFree.exit36

Vec_IntFree.exit36:                               ; preds = %48, %55
  tail call void @free(ptr noundef nonnull %52) #12
  %56 = getelementptr inbounds nuw i8, ptr %0, i64 192
  %57 = load ptr, ptr %56, align 8
  %58 = getelementptr i8, ptr %57, i64 4
  %.val11.i37 = load i32, ptr %58, align 4
  %59 = icmp sgt i32 %.val11.i37, 0
  br i1 %59, label %.lr.ph.i40, label %.critedge.i38

.lr.ph.i40:                                       ; preds = %Vec_IntFree.exit36
  %60 = getelementptr i8, ptr %57, i64 8
  br label %61

61:                                               ; preds = %68, %.lr.ph.i40
  %.val14.i41 = phi i32 [ %.val11.i37, %.lr.ph.i40 ], [ %.val.i48, %68 ]
  %indvars.iv.i42 = phi i64 [ 0, %.lr.ph.i40 ], [ %indvars.iv.next.i49, %68 ]
  %.val8.i43 = load ptr, ptr %60, align 8
  %62 = getelementptr inbounds nuw ptr, ptr %.val8.i43, i64 %indvars.iv.i42
  %63 = load ptr, ptr %62, align 8
  %.not.i44 = icmp eq ptr %63, null
  br i1 %.not.i44, label %68, label %64

64:                                               ; preds = %61
  %65 = getelementptr inbounds nuw i8, ptr %63, i64 8
  %66 = load ptr, ptr %65, align 8
  %.not.i.i45 = icmp eq ptr %66, null
  br i1 %.not.i.i45, label %Vec_PtrFree.exit.i46, label %67

67:                                               ; preds = %64
  tail call void @free(ptr noundef nonnull %66) #12
  br label %Vec_PtrFree.exit.i46

Vec_PtrFree.exit.i46:                             ; preds = %67, %64
  tail call void @free(ptr noundef nonnull %63) #12
  %.val.pre.i47 = load i32, ptr %58, align 4
  br label %68

68:                                               ; preds = %Vec_PtrFree.exit.i46, %61
  %.val.i48 = phi i32 [ %.val14.i41, %61 ], [ %.val.pre.i47, %Vec_PtrFree.exit.i46 ]
  %indvars.iv.next.i49 = add nuw nsw i64 %indvars.iv.i42, 1
  %69 = sext i32 %.val.i48 to i64
  %70 = icmp slt i64 %indvars.iv.next.i49, %69
  br i1 %70, label %61, label %.critedge.i38, !llvm.loop !7

.critedge.i38:                                    ; preds = %68, %Vec_IntFree.exit36
  %71 = getelementptr inbounds nuw i8, ptr %57, i64 8
  %72 = load ptr, ptr %71, align 8
  %.not.i9.i39 = icmp eq ptr %72, null
  br i1 %.not.i9.i39, label %Vec_VecFree.exit50, label %73

73:                                               ; preds = %.critedge.i38
  tail call void @free(ptr noundef nonnull %72) #12
  br label %Vec_VecFree.exit50

Vec_VecFree.exit50:                               ; preds = %.critedge.i38, %73
  tail call void @free(ptr noundef nonnull %57) #12
  %74 = getelementptr inbounds nuw i8, ptr %0, i64 200
  %75 = load ptr, ptr %74, align 8
  %76 = getelementptr inbounds nuw i8, ptr %75, i64 8
  %77 = load ptr, ptr %76, align 8
  %.not.i51 = icmp eq ptr %77, null
  br i1 %.not.i51, label %Vec_PtrFree.exit, label %78

78:                                               ; preds = %Vec_VecFree.exit50
  tail call void @free(ptr noundef nonnull %77) #12
  br label %Vec_PtrFree.exit

Vec_PtrFree.exit:                                 ; preds = %Vec_VecFree.exit50, %78
  tail call void @free(ptr noundef nonnull %75) #12
  %79 = getelementptr inbounds nuw i8, ptr %0, i64 80
  %80 = load ptr, ptr %79, align 8
  %81 = getelementptr inbounds nuw i8, ptr %80, i64 8
  %82 = load ptr, ptr %81, align 8
  %.not.i52 = icmp eq ptr %82, null
  br i1 %.not.i52, label %Vec_IntFree.exit53, label %83

83:                                               ; preds = %Vec_PtrFree.exit
  tail call void @free(ptr noundef nonnull %82) #12
  br label %Vec_IntFree.exit53

Vec_IntFree.exit53:                               ; preds = %Vec_PtrFree.exit, %83
  tail call void @free(ptr noundef nonnull %80) #12
  %84 = getelementptr inbounds nuw i8, ptr %0, i64 88
  %85 = load ptr, ptr %84, align 8
  %86 = getelementptr inbounds nuw i8, ptr %85, i64 8
  %87 = load ptr, ptr %86, align 8
  %.not.i54 = icmp eq ptr %87, null
  br i1 %.not.i54, label %Vec_IntFree.exit55, label %88

88:                                               ; preds = %Vec_IntFree.exit53
  tail call void @free(ptr noundef nonnull %87) #12
  br label %Vec_IntFree.exit55

Vec_IntFree.exit55:                               ; preds = %Vec_IntFree.exit53, %88
  tail call void @free(ptr noundef nonnull %85) #12
  %89 = getelementptr inbounds nuw i8, ptr %0, i64 72
  %90 = load ptr, ptr %89, align 8
  %91 = getelementptr inbounds nuw i8, ptr %90, i64 8
  %92 = load ptr, ptr %91, align 8
  %.not.i56 = icmp eq ptr %92, null
  br i1 %.not.i56, label %Vec_IntFree.exit57, label %93

93:                                               ; preds = %Vec_IntFree.exit55
  tail call void @free(ptr noundef nonnull %92) #12
  br label %Vec_IntFree.exit57

Vec_IntFree.exit57:                               ; preds = %Vec_IntFree.exit55, %93
  tail call void @free(ptr noundef nonnull %90) #12
  %94 = getelementptr inbounds nuw i8, ptr %0, i64 96
  %95 = load ptr, ptr %94, align 8
  %96 = getelementptr inbounds nuw i8, ptr %95, i64 8
  %97 = load ptr, ptr %96, align 8
  %.not.i58 = icmp eq ptr %97, null
  br i1 %.not.i58, label %Vec_PtrFree.exit59, label %98

98:                                               ; preds = %Vec_IntFree.exit57
  tail call void @free(ptr noundef nonnull %97) #12
  br label %Vec_PtrFree.exit59

Vec_PtrFree.exit59:                               ; preds = %Vec_IntFree.exit57, %98
  tail call void @free(ptr noundef nonnull %95) #12
  tail call void @free(ptr noundef nonnull %0) #12
  ret void
}